; Function Attrs: mustprogress uwtable
define noundef ptr @_ZN13duckdb_yyjson19yyjson_doc_mut_copyEPNS_10yyjson_docEPKNS_10yyjson_alcE(ptr noundef readonly captures(address_is_null) %0, ptr noundef readonly captures(address_is_null) %1) local_unnamed_addr #10 {
  %.not = icmp eq ptr %0, null
  br i1 %.not, label %_ZN13duckdb_yyjson18yyjson_mut_doc_newEPKNS_10yyjson_alcE.exit.thread, label %3

3:                                                ; preds = %2
  %4 = load ptr, ptr %0, align 8, !tbaa !69
  %.not15 = icmp eq ptr %4, null
  br i1 %.not15, label %_ZN13duckdb_yyjson18yyjson_mut_doc_newEPKNS_10yyjson_alcE.exit.thread, label %5

5:                                                ; preds = %3
  %.not.i = icmp eq ptr %1, null
  %spec.store.select.i = select i1 %.not.i, ptr @_ZN13duckdb_yyjsonL18YYJSON_DEFAULT_ALCE, ptr %1
  %6 = load ptr, ptr %spec.store.select.i, align 8, !tbaa !17
  %7 = getelementptr inbounds nuw i8, ptr %spec.store.select.i, i64 24
  %8 = load ptr, ptr %7, align 8, !tbaa !21
  %9 = tail call noundef ptr %6(ptr noundef %8, i64 noundef 120)
  %.not14.i = icmp eq ptr %9, null
  br i1 %.not14.i, label %_ZN13duckdb_yyjson18yyjson_mut_doc_newEPKNS_10yyjson_alcE.exit.thread, label %10

10:                                               ; preds = %5
  tail call void @llvm.memset.p0.i64(ptr noundef nonnull align 8 dereferenceable(120) %9, i8 0, i64 120, i1 false)
  %11 = getelementptr inbounds nuw i8, ptr %9, i64 8
  tail call void @llvm.memcpy.p0.p0.i64(ptr noundef nonnull align 8 dereferenceable(32) %11, ptr noundef nonnull align 8 dereferenceable(32) %spec.store.select.i, i64 32, i1 false), !tbaa.struct !4
  %12 = getelementptr inbounds nuw i8, ptr %9, i64 56
  store i64 256, ptr %12, align 8, !tbaa !62
  %13 = getelementptr inbounds nuw i8, ptr %9, i64 64
  store i64 268435456, ptr %13, align 8, !tbaa !67
  %14 = getelementptr inbounds nuw i8, ptr %9, i64 96
  store i64 384, ptr %14, align 8, !tbaa !64
  %15 = getelementptr inbounds nuw i8, ptr %9, i64 104
  store i64 402653184, ptr %15, align 8, !tbaa !68
  %16 = load ptr, ptr %0, align 8, !tbaa !69
  %17 = tail call noundef ptr @_ZN13duckdb_yyjson19yyjson_val_mut_copyEPNS_14yyjson_mut_docEPNS_10yyjson_valE(ptr noundef nonnull %9, ptr noundef %16)
  %.not17 = icmp eq ptr %17, null
  br i1 %.not17, label %18, label %25

18:                                               ; preds = %10
  %.sroa.3.0..sroa_idx.i = getelementptr inbounds nuw i8, ptr %9, i64 24
  %.sroa.3.0.copyload.i = load ptr, ptr %.sroa.3.0..sroa_idx.i, align 8, !tbaa !5
  %.sroa.6.0..sroa_idx.i = getelementptr inbounds nuw i8, ptr %9, i64 32
  %.sroa.6.0.copyload.i = load ptr, ptr %.sroa.6.0..sroa_idx.i, align 8, !tbaa !5
  tail call void @llvm.memset.p0.i64(ptr noundef nonnull align 8 dereferenceable(32) %11, i8 0, i64 32, i1 false)
  %19 = getelementptr inbounds nuw i8, ptr %9, i64 72
  %20 = load ptr, ptr %19, align 8, !tbaa !44
  %.not.i12.i = icmp eq ptr %20, null
  br i1 %.not.i12.i, label %_ZN13duckdb_yyjsonL30unsafe_yyjson_str_pool_releaseEPNS_15yyjson_str_poolEPNS_10yyjson_alcE.exit.i, label %.lr.ph.i

.lr.ph.i:                                         ; preds = %18, %.lr.ph.i
  %.0.i13.i = phi ptr [ %21, %.lr.ph.i ], [ %20, %18 ]
  %21 = load ptr, ptr %.0.i13.i, align 8, !tbaa !45
  tail call void %.sroa.3.0.copyload.i(ptr noundef %.sroa.6.0.copyload.i, ptr noundef nonnull %.0.i13.i)
  %.not.i.i = icmp eq ptr %21, null
  br i1 %.not.i.i, label %_ZN13duckdb_yyjsonL30unsafe_yyjson_str_pool_releaseEPNS_15yyjson_str_poolEPNS_10yyjson_alcE.exit.i, label %.lr.ph.i, !llvm.loop !65

_ZN13duckdb_yyjsonL30unsafe_yyjson_str_pool_releaseEPNS_15yyjson_str_poolEPNS_10yyjson_alcE.exit.i: ; preds = %.lr.ph.i, %18
  %22 = getelementptr inbounds nuw i8, ptr %9, i64 112
  %23 = load ptr, ptr %22, align 8, !tbaa !55
  %.not.i714.i = icmp eq ptr %23, null
  br i1 %.not.i714.i, label %_ZN13duckdb_yyjson19yyjson_mut_doc_freeEPNS_14yyjson_mut_docE.exit, label %.lr.ph16.i

.lr.ph16.i:                                       ; preds = %_ZN13duckdb_yyjsonL30unsafe_yyjson_str_pool_releaseEPNS_15yyjson_str_poolEPNS_10yyjson_alcE.exit.i, %.lr.ph16.i
  %.0.i615.i = phi ptr [ %24, %.lr.ph16.i ], [ %23, %_ZN13duckdb_yyjsonL30unsafe_yyjson_str_pool_releaseEPNS_15yyjson_str_poolEPNS_10yyjson_alcE.exit.i ]
  %24 = load ptr, ptr %.0.i615.i, align 8, !tbaa !56
  tail call void %.sroa.3.0.copyload.i(ptr noundef %.sroa.6.0.copyload.i, ptr noundef nonnull %.0.i615.i)
  %.not.i7.i = icmp eq ptr %24, null
  br i1 %.not.i7.i, label %_ZN13duckdb_yyjson19yyjson_mut_doc_freeEPNS_14yyjson_mut_docE.exit, label %.lr.ph16.i, !llvm.loop !66

_ZN13duckdb_yyjson19yyjson_mut_doc_freeEPNS_14yyjson_mut_docE.exit: ; preds = %.lr.ph16.i, %_ZN13duckdb_yyjsonL30unsafe_yyjson_str_pool_releaseEPNS_15yyjson_str_poolEPNS_10yyjson_alcE.exit.i
  tail call void %.sroa.3.0.copyload.i(ptr noundef %.sroa.6.0.copyload.i, ptr noundef nonnull %9)
  br label %_ZN13duckdb_yyjson18yyjson_mut_doc_newEPKNS_10yyjson_alcE.exit.thread

25:                                               ; preds = %10
  store ptr %17, ptr %9, align 8, !tbaa !72
  br label %_ZN13duckdb_yyjson18yyjson_mut_doc_newEPKNS_10yyjson_alcE.exit.thread

_ZN13duckdb_yyjson18yyjson_mut_doc_newEPKNS_10yyjson_alcE.exit.thread: ; preds = %5, %2, %3, %25, %_ZN13duckdb_yyjson19yyjson_mut_doc_freeEPNS_14yyjson_mut_docE.exit
  %.0 = phi ptr [ %9, %25 ], [ null, %_ZN13duckdb_yyjson19yyjson_mut_doc_freeEPNS_14yyjson_mut_docE.exit ], [ null, %3 ], [ null, %2 ], [ null, %5 ]
  ret ptr %.0
}